(lp0
S'http://220.174.209.156:7001/hn-eams/NetService/Layout/newhot.jsp'
p1
aS'http://www.sina.com.cn'
p2
aS'http://www.jlkj.gov.cn/web/moreList2WebContents?types=tzgg&funcId=7&fid=23'
p3
aS'http://www.jlkj.gov.cn/web/moreList2WebContents?types=tzgg&funcId=6&fid=19'
p4
aS'http://www.jlkj.gov.cn/web/moreList2WebContents?types=tzgg&funcId=5&fid=15'
p5
aS'http://www.hnjy.gov.cn/web2/exam2/menu.jsp?areaId=113&menuId=416'
p6
aS'http://www.hnjy.gov.cn/web2/exam2/menu.jsp?areaId=113&menuId=349'
p7
aS'http://www.cxzcz.gov.cn/index.php/cms/item-list-category-637.shtml'
p8
aS'http://www.hnjy.gov.cn/web2/exam2/index.jsp'
p9
aS'http://wsbm.fjkj.gov.cn/myServlet?action=newslist&tgtype=1&pageno=1'
p10
aS'http://cz.fjkj.gov.cn/seclist.cfm?sid=3&f_cd=7'
p11
aS'http://www.xjrsks.com.cn/index.asp?id=%CA%D7%D2%B3'
p12
aS'http://www.tjkj.gov.cn/platform/tjkj/kjrygl.jsp?channelId=83&pageIndex=1'
p13
aS'http://cz.fjkj.gov.cn/secpag.cfm?sid=6'
p14
aS'http://www.tjkj.gov.cn/platform/tjkj/kjrygl.jsp?channelId=85&pageIndex=1'
p15
aS'http://www.tjkj.gov.cn/platform/tjkj/kjrygl.jsp?channelId=87&pageIndex=1'
p16
aS'http://www.tjkj.gov.cn/platform/tjkj/kjrygl.jsp?channelId=82&pageIndex=1'
p17
aS'http://www.tjkj.gov.cn/platform/tjkj/kjrygl.jsp?channelId=84&pageIndex=1'
p18
aS'http://www.tjkj.gov.cn/platform/tjkj/kjrygl.jsp?channelId=86&pageIndex=1'
p19
aS'http://www.gdkszx.com.cn/score_more.asp'
p20
aS'http://cz.fjkj.gov.cn/secpag.cfm?sid=7'
p21
a.